(lp0
(dp1
S'detective'
p2
I1
sS'all'
p3
I15
sS'since'
p4
I2
sS'pointing'
p5
I1
sS'chopped'
p6
I1
sS'beware'
p7
I1
sS'Jim'
p8
I7
sS'theoretical'
p9
I1
sS'dubbed'
p10
I1
sS'suspenseful'
p11
I1
sS'bizzare'
p12
I1
sS'rareties'
p13
I1
sS'theaters'
p14
I2
sS'drastically'
p15
I1
sS'Deffinatly'
p16
I1
sS'per'
p17
I1
sS'suspected'
p18
I1
sS'go'
p19
I3
sS'follow'
p20
I1
sS'seemed'
p21
I2
sS'Brown'
p22
I1
sS'Neeson'
p23
I1
sS'humming'
p24
I1
sS'everything'
p25
I1
sS'shouldn'
p26
I1
sS'Incredible'
p27
I2
sS'father'
p28
I2
sS'young'
p29
I3
sS'laughing'
p30
I1
sS'to'
p31
I43
sS'critical'
p32
I1
sS'present'
p33
I2
sS'face'
p34
I1
sS'under'
p35
I1
sS'Not'
p36
I1
sS'China'
p37
I1
sS'dislike'
p38
I2
sS'Now'
p39
I1
sS'portayed'
p40
I1
sS'Henson'
p41
I6
sS'sent'
p42
I1
sS'fasinating'
p43
I1
sS'pay'
p44
I1
sS'evern'
p45
I1
sS'ride'
p46
I1
sS'worse'
p47
I2
sS'Dual-Bladed'
p48
I1
sS'song'
p49
I1
sS'very'
p50
I17
sS'role'
p51
I1
sS'horror'
p52
I2
sS'rise'
p53
I1
sS'none'
p54
I1
sS'choice'
p55
I3
sS'wishes'
p56
I1
sS'every'
p57
I2
sS'lynch'
p58
I1
sS'awful'
p59
I1
sS'education'
p60
I1
sS'bringing'
p61
I1
sS'cool'
p62
I5
sS'school'
p63
I1
sS'Parker'
p64
I2
sS'magic'
p65
I1
sS'mesmerizing'
p66
I1
sS'doesn'
p67
I2
sS'presented'
p68
I1
sS'did'
p69
I4
sS'die'
p70
I4
sS'graced'
p71
I1
sS'Classic'
p72
I1
sS'Toby'
p73
I1
sS'brother'
p74
I2
sS'leave'
p75
I1
sS'solid'
p76
I1
sS'coincidences'
p77
I1
sS'Triple-J'
p78
I1
sS'team'
p79
I1
sS'Go'
p80
I1
sS'guy'
p81
I3
sS'Must'
p82
I1
sS'George'
p83
I2
sS'Take'
p84
I1
sS'enjoy'
p85
I2
sS'inot'
p86
I1
sS'droid'
p87
I1
sS'Kenobi'
p88
I1
sS'fence'
p89
I1
sS'till'
p90
I1
sS'MOVIE'
p91
I1
sS'teenage'
p92
I1
sS'Jinn'
p93
I1
sS'traveler'
p94
I1
sS'direct'
p95
I1
sS'vortexes'
p96
I1
sS'battle'
p97
I2
sS'likely'
p98
I1
sS'Bashed'
p99
I1
sS'may'
p100
I3
sS'exuberant'
p101
I1
sS'Jane'
p102
I1
sS'machines'
p103
I1
sS'victor'
p104
I1
sS'even'
p105
I8
sS'Eventually'
p106
I1
sS'what'
p107
I10
sS'plays'
p108
I1
sS'Confusing'
p109
I1
sS'giving'
p110
I1
sS'Connery'
p111
I1
sS'exactly'
p112
I1
sS'Darth'
p113
I3
sS'stunning'
p114
I1
sS'find'
p115
I2
sS'crush'
p116
I1
sS'jedi'
p117
I1
sS'version'
p118
I2
sS'goes'
p119
I2
sS'new'
p120
I4
sS';'
p121
I1
sS'reluctant'
p122
I1
sS'ever'
p123
I14
sS'fabulous'
p124
I1
sS'filled'
p125
I1
sS'thin'
p126
I1
sS'scenery'
p127
I1
sS'disappoint'
p128
I1
sS'Forever'
p129
I1
sS'Highlands'
p130
I1
sS'hero'
p131
I2
sS'whose'
p132
I1
sS'never'
p133
I6
sS'songs'
p134
I3
sS'here'
p135
I1
sS'finest'
p136
I1
sS'hours'
p137
I1
sS'met'
p138
I1
sS'CHUT'
p139
I1
sS'Green'
p140
I2
sS'groups'
p141
I1
sS'investigating'
p142
I1
sS'alone'
p143
I2
sS'sexy'
p144
I1
sS'say-'
p145
I1
sS'strong'
p146
I2
sS'My'
p147
I2
sS'change'
p148
I3
sS'wait'
p149
I4
sS'handle'
p150
I1
sS'boy'
p151
I2
sS'great'
p152
I26
sS'kids'
p153
I2
sS'talent'
p154
I1
sS'healthy'
p155
I1
sS'Queen'
p156
I2
sS'Back'
p157
I1
sS'creepy'
p158
I1
sS'Jennifer'
p159
I3
sS'bittersweet'
p160
I1
sS'paranoid'
p161
I1
sS'coolest'
p162
I1
sS'suggestion'
p163
I1
sS'action'
p164
I4
sS'Caviezel'
p165
I1
sS'aka'
p166
I1
sS'deserves'
p167
I1
sS'makes'
p168
I4
sS'intrigue'
p169
I2
sS'fell'
p170
I1
sS'king'
p171
I2
sS'trainer'
p172
I1
sS'beautiful'
p173
I3
sS'fantastic'
p174
I6
sS'love'
p175
I12
sS'family'
p176
I2
sS'danger'
p177
I1
sS'tells'
p178
I1
sS'donnie'
p179
I1
sS'When'
p180
I2
sS'Anakin'
p181
I1
sS'highly'
p182
I1
sS'brought'
p183
I1
sS'Also'
p184
I1
sS'breath-taking'
p185
I1
sS'composer'
p186
I1
sS'total'
p187
I1
sS'singing'
p188
I1
sS'landscape'
p189
I1
sS'opponents'
p190
I1
sS'everybody'
p191
I1
sS'learns'
p192
I2
sS'use'
p193
I2
sS'from'
p194
I14
sS'takes'
p195
I1
sS'would'
p196
I12
sS'surroundings'
p197
I1
sS'Labyrinth'
p198
I4
sS'nine'
p199
I1
sS'downfall'
p200
I1
sS'single'
p201
I1
sS'two'
p202
I2
sS'Maul'
p203
I4
sS'Tiger'
p204
I1
sS'few'
p205
I6
sS'live'
p206
I2
sS'music'
p207
I5
sS'lightsaber'
p208
I2
sS'recommend'
p209
I5
sS'Stan'
p210
I1
sS'survive'
p211
I1
sS'means'
p212
I1
sS'preview'
p213
I1
sS'tell'
p214
I6
sS'today'
p215
I1
sS'more'
p216
I9
sS'teen'
p217
I2
sS'gained'
p218
I1
sS'son'
p219
I2
sS'clever'
p220
I1
sS'babe'
p221
I1
sS'knows'
p222
I1
sS'started'
p223
I1
sS'brings'
p224
I1
sS'impress'
p225
I1
sS'wars'
p226
I3
sS'meant'
p227
I1
sS'visual'
p228
I1
sS'adult'
p229
I1
sS'rabbit'
p230
I1
sS'excellent'
p231
I6
sS'baby'
p232
I1
sS'90'
p233
I1
sS'hold'
p234
I1
sS'Normally'
p235
I1
sS'Drew'
p236
I1
sS'must'
p237
I4
sS'me'
p238
I12
sS'ALL'
p239
I1
sS'enjoying'
p240
I1
sS'worldwide'
p241
I1
sS'wore'
p242
I1
sS'hour'
p243
I1
sS'shame'
p244
I1
sS'this'
p245
I34
sS'reputations'
p246
I1
sS'past'
p247
I3
sS'People'
p248
I1
sS'sucks'
p249
I1
sS'entertained'
p250
I1
sS'worth'
p251
I1
sS'movies'
p252
I20
sS'itself'
p253
I1
sS'outstanding'
p254
I1
sS'can'
p255
I15
sS'learn'
p256
I2
sS'growing'
p257
I1
sS'making'
p258
I1
sS'sets'
p259
I2
sS'my'
p260
I14
sS'Phantom'
p261
I4
sS'five-star'
p262
I1
sS'compare'
p263
I1
sS'give'
p264
I2
sS'process'
p265
I1
sS'Having'
p266
I1
sS'awesome'
p267
I3
sS'beautifully'
p268
I2
sS'accept'
p269
I1
sS'terrible'
p270
I1
sS'high'
p271
I1
sS'villain'
p272
I1
sS'racing'
p273
I2
sS'want'
p274
I3
sS'sense'
p275
I5
sS'wonderful'
p276
I2
sS'story'
p277
I6
sS'dress'
p278
I1
sS'sci-fi'
p279
I5
sS'!'
p280
I32
sS'comes'
p281
I1
sS'rumble'
p282
I1
sS'fett'
p283
I1
sS'end'
p284
I6
sS'Federation'
p285
I1
sS'thing'
p286
I3
sS'rather'
p287
I1
sS'heroine'
p288
I1
sS'watching'
p289
I4
sS'differences'
p290
I1
sS'stayed'
p291
I1
sS'1'
p292
I1
sS'far'
p293
I4
sS'amazing'
p294
I7
sS'edge'
p295
I1
sS'Fall'
p296
I1
sS'instead'
p297
I2
sS'white'
p298
I1
sS'comedy'
p299
I1
sS'Dennis'
p300
I2
sS'A'
p301
I11
sS'puppets'
p302
I2
sS'Natalie'
p303
I2
sS'hawt'
p304
I1
sS'Lucas'
p305
I3
sS'haven'
p306
I1
sS'Jar-Jar'
p307
I1
sS'watch'
p308
I3
sS'Joel'
p309
I1
sS'after'
p310
I5
sS'needs'
p311
I1
sS'Because'
p312
I1
sS'soundtrack'
p313
I4
sS'wrong'
p314
I2
sS'lot'
p315
I2
sS'wrist'
p316
I1
sS'coming'
p317
I1
sS'fab'
p318
I2
sS'such'
p319
I4
sS'Keep'
p320
I1
sS'grow'
p321
I1
sS'co-starring'
p322
I1
sS'fo'
p323
I1
sS'a'
p324
I52
sS'All'
p325
I5
sS'muppets'
p326
I3
sS'attempt'
p327
I1
sS'remember'
p328
I1
sS'moments'
p329
I1
sS'crowded'
p330
I1
sS'following'
p331
I1
sS'sit'
p332
I1
sS'appreciate'
p333
I2
sS'One'
p334
I4
sS'sickening'
p335
I1
sS'courage'
p336
I1
sS'so'
p337
I9
sS'Sean'
p338
I1
sS'Another'
p339
I1
sS'classy'
p340
I1
sS'fan'
p341
I2
sS'Really'
p342
I1
sS'Hammer'
p343
I1
sS'playing'
p344
I2
sS'se'
p345
I1
sS'filmaker'
p346
I1
sS'Even'
p347
I2
sS'What'
p348
I2
sS'theme'
p349
I2
sS'help'
p350
I1
sS'computer-generized'
p351
I1
sS'developed'
p352
I1
sS'over'
p353
I4
sS'exchanges'
p354
I1
sS'Jar'
p355
I3
sS'fleshed-out'
p356
I1
sS'years'
p357
I3
sS'produced'
p358
I1
sS'held'
p359
I1
sS'appeals'
p360
I1
sS'through'
p361
I4
sS'costume'
p362
I1
sS'Connley'
p363
I1
sS'hell'
p364
I1
sS'budding'
p365
I1
sS'still'
p366
I7
sS'its'
p367
I8
sS'before'
p368
I3
sS'perfect'
p369
I3
sS'superior'
p370
I1
sS'style'
p371
I1
sS'His'
p372
I1
sS'Hero'
p373
I1
sS'Its'
p374
I1
sS'22'
p375
I1
sS'how'
p376
I9
sS'somewhere'
p377
I1
sS'interesting'
p378
I4
sS'll'
p379
I1
sS'No'
p380
I1
sS','
p381
I52
sS'Strikes'
p382
I1
sS'actually'
p383
I5
sS'better'
p384
I6
sS'willing'
p385
I1
sS'foot'
p386
I1
sS'skills'
p387
I2
sS'hidden'
p388
I1
sS'main'
p389
I2
sS'might'
p390
I2
sS'into'
p391
I4
sS'overcome'
p392
I1
sS'happened'
p393
I1
sS'versus'
p394
I1
sS'then'
p395
I5
sS'them'
p396
I2
sS'good'
p397
I12
sS'affected'
p398
I1
sS'reveal'
p399
I1
sS'prevented'
p400
I1
sS'relationship'
p401
I1
sS'Absolutely'
p402
I1
sS'mention'
p403
I1
sS'touching'
p404
I1
sS'effects'
p405
I12
sS'they'
p406
I11
sS'half'
p407
I1
sS'not'
p408
I13
sS'now'
p409
I6
sS'day'
p410
I4
sS'sucked'
p411
I1
sS'mystery'
p412
I1
sS'easily'
p413
I1
sS'orginal'
p414
I1
sS'banished'
p415
I1
sS'Sam'
p416
I1
sS'always'
p417
I3
sS'believable'
p418
I1
sS'didn'
p419
I3
sS'Potter'
p420
I1
sS'events'
p421
I1
sS'realistic'
p422
I3
sS'man'
p423
I2
sS'tights'
p424
I1
sS'found'
p425
I1
sS'went'
p426
I3
sS'Liam'
p427
I2
sS'side'
p428
I1
sS'Kind'
p429
I1
sS'Ray'
p430
I1
sS'everyone'
p431
I7
sS'Humor'
p432
I1
sS'prompted'
p433
I1
sS'weight'
p434
I1
sS'due'
p435
I1
sS'series'
p436
I1
sS'told'
p437
I1
sS'hard'
p438
I1
sS'directing'
p439
I1
sS'idea'
p440
I3
sS'Live'
p441
I1
sS'books'
p442
I2
sS'expect'
p443
I1
sS'exceeded'
p444
I1
sS'girl'
p445
I4
sS'collector'
p446
I1
sS'message'
p447
I1
sS'special'
p448
I10
sS'out'
p449
I8
sS'giddy'
p450
I1
sS'try'
p451
I2
sS'crashes'
p452
I1
sS"'"
p453
I39
sS'space'
p454
I2
sS'Very'
p455
I1
sS'god'
p456
I2
sS'tried'
p457
I1
sS'lightsabre'
p458
I1
sS'hooked'
p459
I1
sS'Wars'
p460
I6
sS'fantasical'
p461
I1
sS'critics'
p462
I1
sS'acting'
p463
I5
sS'magicians'
p464
I1
sS'superbly'
p465
I1
sS'com'
p466
I1
sS'Magic'
p467
I1
sS'8x10'
p468
I1
sS'got'
p469
I4
sS'Super'
p470
I1
sS'sacrifice'
p471
I2
sS'math'
p472
I1
sS'shows'
p473
I4
sS'bascillam'
p474
I1
sS'bolts'
p475
I1
sS'state'
p476
I1
sS'This'
p477
I22
sS'frank'
p478
I1
sS'Originally'
p479
I2
sS'harry'
p480
I1
sS'seventh'
p481
I1
sS'given'
p482
I1
sS'enchanced'
p483
I1
sS'hype'
p484
I1
sS'reason'
p485
I2
sS'members'
p486
I1
sS'Raimi'
p487
I1
sS'year'
p488
I1
sS'checked'
p489
I1
sS'beginning'
p490
I3
sS'loads'
p491
I1
sS'care'
p492
I1
sS'Fantastic'
p493
I1
sS'couldn'
p494
I2
sS'miss'
p495
I1
sS'created'
p496
I1
sS'September'
p497
I1
sS'starts'
p498
I1
sS'could'
p499
I6
sS'ritual'
p500
I1
sS'days'
p501
I3
sS'times'
p502
I8
sS'creates'
p503
I1
sS'Palpatine'
p504
I1
sS'disturbed'
p505
I1
sS'place'
p506
I1
sS'isn'
p507
I1
sS'manicured'
p508
I1
sS'chills'
p509
I1
sS'fallen'
p510
I1
sS'think'
p511
I7
sS'first'
p512
I11
sS'origin'
p513
I1
sS'teh'
p514
I1
sS'indie'
p515
I1
sS'already'
p516
I1
sS'favorites'
p517
I3
sS'behind'
p518
I1
sS'grade'
p519
I1
sS'relate'
p520
I1
sS'overdressed'
p521
I1
sS'powerful'
p522
I1
sS'scene'
p523
I3
sS'subtle'
p524
I1
sS'one'
p525
I27
sS'Connelly'
p526
I2
sS'fantasy'
p527
I3
sS'Dafor'
p528
I1
sS'done'
p529
I6
sS'another'
p530
I2
sS'says'
p531
I1
sS'comic'
p532
I7
sS'ways'
p533
I1
sS'open'
p534
I1
sS'bad-mouth'
p535
I1
sS'autograph'
p536
I1
sS'take'
p537
I2
sS'Portman'
p538
I2
sS'little'
p539
I5
sS'truly'
p540
I1
sS'heads'
p541
I1
sS'picket'
p542
I1
sS'quality'
p543
I2
sS'start'
p544
I2
sS'introduction'
p545
I1
sS'caught'
p546
I1
sS'girls'
p547
I1
sS'intriguing'
p548
I1
sS'least'
p549
I1
sS'anyone'
p550
I3
sS'their'
p551
I5
sS'Clancy'
p552
I1
sS'2'
p553
I1
sS'tragic'
p554
I1
sS'too'
p555
I6
sS'time'
p556
I8
sS'mood'
p557
I1
sS'hundred'
p558
I1
sS'perfectly'
p559
I3
sS'really'
p560
I7
sS'Desert'
p561
I1
sS'friend'
p562
I1
sS'insightful'
p563
I1
sS'1999'
p564
I2
sS'thread'
p565
I1
sS'Characters'
p566
I1
sS'mostly'
p567
I1
sS'that'
p568
I29
sS'Spiderman'
p569
I1
sS'Patrick'
p570
I1
sS'doomed'
p571
I1
sS'realization'
p572
I1
sS'took'
p573
I1
sS'boba'
p574
I1
sS'released'
p575
I3
sS'part'
p576
I2
sS'off'
p577
I3
sS'goblin'
p578
I2
sS'than'
p579
I6
sS'Obi-Wan'
p580
I3
sS'character'
p581
I5
sS'Bitch'
p582
I1
sS'loved'
p583
I7
sS'kind'
p584
I1
sS'bored'
p585
I1
sS'Love'
p586
I2
sS'last'
p587
I2
sS'showed'
p588
I2
sS'edition'
p589
I1
sS'19'
p590
I1
sS'double'
p591
I1
sS'scenes'
p592
I3
sS'packed'
p593
I1
sS'youth'
p594
I1
sS'1977'
p595
I1
sS'future'
p596
I4
sS'orchestrated'
p597
I1
sS'loves'
p598
I2
sS'were'
p599
I10
sS'sister'
p600
I1
sS'Peter'
p601
I2
sS'Lightsaber'
p602
I1
sS'and'
p603
I57
sS'failing'
p604
I1
sS'sees'
p605
I1
sS'picked'
p606
I1
sS'basically'
p607
I1
sS'look'
p608
I4
sS'God'
p609
I2
sS'Peace'
p610
I1
sS'ages'
p611
I1
sS'street'
p612
I1
sS'sad'
p613
I2
sS'all-time'
p614
I1
sS'say'
p615
I5
sS'imdb'
p616
I1
sS'have'
p617
I20
sS'lurking'
p618
I1
sS'need'
p619
I1
sS'seen'
p620
I15
sS'seem'
p621
I1
sS'saw'
p622
I6
sS'clearly'
p623
I1
sS'Williams'
p624
I1
sS'screw'
p625
I1
sS'ponder'
p626
I1
sS'strength'
p627
I1
sS'Lucifer'
p628
I1
sS'lured'
p629
I1
sS'check'
p630
I1
sS'sequels'
p631
I1
sS'Spider-man'
p632
I1
sS'After'
p633
I1
sS'able'
p634
I2
sS'aside'
p635
I1
sS'battles'
p636
I2
sS'metallic'
p637
I1
sS'oriented'
p638
I1
sS'also'
p639
I4
sS'recommended'
p640
I1
sS'animation'
p641
I1
sS'grew'
p642
I1
sS'amusing'
p643
I1
sS'which'
p644
I2
sS'Half'
p645
I1
sS'shocker'
p646
I1
sS'responsibility'
p647
I2
sS'personalized'
p648
I1
sS'creatures'
p649
I1
sS'With'
p650
I1
sS'becoming'
p651
I1
sS'bitching'
p652
I1
sS'urge'
p653
I1
sS'play'
p654
I1
sS'sure'
p655
I1
sS'unless'
p656
I1
sS'Dunst'
p657
I2
sS'actioned'
p658
I1
sS'Defoe'
p659
I1
sS'knew'
p660
I3
sS'darth'
p661
I2
sS'WHAT'
p662
I1
sS'paid'
p663
I1
sS'skull'
p664
I1
sS'Perfection'
p665
I1
sS'most'
p666
I5
sS'Good'
p667
I1
sS'strikes'
p668
I1
sS'tall'
p669
I1
sS'nothing'
p670
I1
sS'The'
p671
I24
sS'lots'
p672
I1
sS'why'
p673
I5
sS'sequils'
p674
I1
sS'deny'
p675
I1
sS'stupid'
p676
I1
sS'don'
p677
I7
sS'especially'
p678
I3
sS'room'
p679
I1
sS'lines'
p680
I1
sS'performances'
p681
I1
sS'eachother'
p682
I1
sS'later'
p683
I1
sS'Some'
p684
I1
sS'gracefully'
p685
I1
sS'musical'
p686
I1
sS'looked'
p687
I1
sS'Critics'
p688
I1
sS'definitely'
p689
I2
sS'storyline'
p690
I1
sS'Film'
p691
I1
sS'Quaid'
p692
I2
sS'nailed'
p693
I1
sS'voodoo'
p694
I1
sS'entertaining'
p695
I4
sS'usual'
p696
I1
sS'typically'
p697
I1
sS'away'
p698
I5
sS'fact'
p699
I1
sS'alice-in-wonderland-type'
p700
I1
sS'saying'
p701
I1
sS'terrific'
p702
I1
sS'shot'
p703
I1
sS'show'
p704
I4
sS'saga'
p705
I3
sS'Park'
p706
I1
sS'DeFore'
p707
I1
sS'ending'
p708
I3
sS'executed'
p709
I1
sS'seems'
p710
I1
sS'twists'
p711
I1
sS'punctuated'
p712
I1
sS'earth'
p713
I1
sS'tempted'
p714
I1
sS'longer'
p715
I1
sS'fine'
p716
I1
sS'enjoyed'
p717
I4
sS'make'
p718
I4
sS'Wants'
p719
I1
sS'ma-gic'
p720
I1
sS'touches'
p721
I1
sS'considered'
p722
I1
sS'perviuos'
p723
I1
sS'title'
p724
I1
sS'front'
p725
I1
sS'('
p726
I9
sS'explain'
p727
I1
sS'Bowie'
p728
I11
sS'3'
p729
I2
sS'Hulk'
p730
I1
sS'should'
p731
I5
sS'failed'
p732
I1
sS'only'
p733
I13
sS'going'
p734
I2
sS'26'
p735
I1
sS'McGwire'
p736
I1
sS'pointed'
p737
I1
sS'hope'
p738
I1
sS'indepth'
p739
I1
sS'spun'
p740
I1
sS'do'
p741
I7
sS'his'
p742
I13
sS'hit'
p743
I1
sS'classic-too'
p744
I1
sS'get'
p745
I6
sS'casted'
p746
I1
sS'goosebumps'
p747
I1
sS'props'
p748
I1
sS'overall'
p749
I2
sS'Gathering'
p750
I1
sS'da'
p751
I1
sS'baffle'
p752
I1
sS'Crystal'
p753
I2
sS'While'
p754
I1
sS'ones'
p755
I3
sS'rest'
p756
I1
sS'During'
p757
I1
sS'frightening'
p758
I1
sS'him'
p759
I7
sS'AN'
p760
I1
sS'distraction'
p761
I1
sS'enemy'
p762
I1
sS'Jarreth'
p763
I1
sS'truth'
p764
I1
sS'course'
p765
I1
sS'shy'
p766
I1
sS'AWESOME'
p767
I2
sS'generally'
p768
I1
sS'timeless'
p769
I2
sS'superb'
p770
I1
sS'bad'
p771
I4
sS'stuff'
p772
I3
sS'blogspot'
p773
I1
sS'she'
p774
I2
sS'shots'
p775
I1
sS'heartwarming'
p776
I2
sS'release'
p777
I2
sS'Nesson'
p778
I1
sS'Anyways'
p779
I1
sS'watchin'
p780
I1
sS'where'
p781
I3
sS'Highlander'
p782
I1
sS'wrote'
p783
I1
sS'looks'
p784
I2
sS'ignored'
p785
I1
sS'blew'
p786
I2
sS'inventive'
p787
I1
sS'art'
p788
I2
sS'For'
p789
I3
sS'plane'
p790
I1
sS'Spider-Man'
p791
I1
sS'notice'
p792
I1
sS'schizophrenic'
p793
I1
sS'automatic'
p794
I1
sS'see'
p795
I9
sS'computer'
p796
I1
sS'surrealism'
p797
I1
sS'are'
p798
I16
sS'existence'
p799
I1
sS'anything'
p800
I1
sS'disturbing'
p801
I1
sS'John'
p802
I1
sS'composed'
p803
I1
sS'best'
p804
I16
sS'REALLY'
p805
I1
sS'planet'
p806
I1
sS'movin'
p807
I1
sS'said'
p808
I3
sS'superhero'
p809
I1
sS'That'
p810
I5
sS'Towers'
p811
I1
sS'movie'
p812
I58
sS'review'
p813
I1
sS'There'
p814
I1
sS'please'
p815
I2
sS'portrayed'
p816
I2
sS'genius'
p817
I1
sS'enough'
p818
I3
sS'Frequency'
p819
I1
sS'between'
p820
I5
sS'Clones'
p821
I1
sS'probably'
p822
I3
sS'Look'
p823
I1
sS'reading'
p824
I1
sS'house'
p825
I1
sS'pants'
p826
I2
sS'knowing'
p827
I1
sS'King'
p828
I1
sS'we'
p829
I2
sS'attention'
p830
I1
sS'recently'
p831
I1
sS'bed'
p832
I1
sS'labelled'
p833
I1
sS'era'
p834
I1
sS'intrigueing'
p835
I1
sS'badness'
p836
I1
sS'sold'
p837
I1
sS'Darko'
p838
I3
sS'weak'
p839
I1
sS'however'
p840
I2
sS'signaled'
p841
I1
sS'job'
p842
I3
sS'drew'
p843
I1
sS'nieve'
p844
I1
sS'franchise'
p845
I2
sS'david'
p846
I1
sS'imaginitive'
p847
I1
sS'league'
p848
I1
sS'feeling'
p849
I1
sS'instant'
p850
I2
sS'Spidey'
p851
I2
sS'nill'
p852
I1
sS'many'
p853
I4
sS'Qui-Gon'
p854
I2
sS'Spider'
p855
I1
sS'minds'
p856
I2
sS'agree'
p857
I2
sS's'
p858
I21
sS'became'
p859
I1
sS'alot'
p860
I1
sS'faces'
p861
I1
sS'fans'
p862
I1
sS'Yes'
p863
I1
sS'mid'
p864
I1
sS'whole'
p865
I4
sS'prequel'
p866
I1
sS'journey'
p867
I2
sS'Superman'
p868
I1
sS'comment'
p869
I1
sS'6'
p870
I1
sS'liked'
p871
I2
sS'Hensons'
p872
I1
sS'point'
p873
I2
sS'simple'
p874
I1
sS'DVD'
p875
I4
sS'novices'
p876
I1
sS'others'
p877
I1
sS'firefighter'
p878
I1
sS'likeable'
p879
I1
sS'concepts'
p880
I1
sS'Finally'
p881
I1
sS'written'
p882
I2
sS'simply'
p883
I1
sS'adaptation'
p884
I1
sS'church'
p885
I1
sS'respect'
p886
I1
sS'pod'
p887
I3
sS'throughout'
p888
I1
sS'100'
p889
I1
sS'combines'
p890
I1
sS'Sure'
p891
I2
sS'SO'
p892
I1
sS'trilogy'
p893
I1
sS'political'
p894
I1
sS'three'
p895
I4
sS'been'
p896
I4
sS'.'
p897
I73
sS'Most'
p898
I1
sS'much'
p899
I6
sS'interest'
p900
I1
sS'frighten'
p901
I1
sS'helicopter'
p902
I1
sS'fantasies'
p903
I2
sS'premise'
p904
I1
sS'villans'
p905
I1
sS'4'
p906
I2
sS'engine'
p907
I1
sS'dialogue'
p908
I5
sS'certainly'
p909
I1
sS'superpowers'
p910
I1
sS'easy'
p911
I1
sS'cop'
p912
I1
sS'thousand'
p913
I1
sS'-'
p914
I2
sS'X-Men'
p915
I1
sS'wounds'
p916
I1
sS'racer'
p917
I1
sS'gud'
p918
I1
sS'understand'
p919
I3
sS'deep'
p920
I1
sS'vengenance'
p921
I1
sS'an'
p922
I13
sS'those'
p923
I3
sS'matter'
p924
I1
sS'And'
p925
I2
sS'myself'
p926
I2
sS'save'
p927
I3
sS'adaptations'
p928
I1
sS'talking'
p929
I3
sS'these'
p930
I3
sS'plain'
p931
I1
sS'Attack'
p932
I1
sS'Nuns'
p933
I1
sS'teaches'
p934
I1
sS'will'
p935
I6
sS'cast'
p936
I2
sS'while'
p937
I3
sS'1980'
p938
I1
sS'caving'
p939
I1
sS'careers'
p940
I1
sS'cannot'
p941
I1
sS'Year'
p942
I1
sS'fun'
p943
I4
sS'suspense'
p944
I1
sS'Open'
p945
I1
sS'maul'
p946
I1
sS'lingo'
p947
I1
sS'Conner'
p948
I1
sS'imagination'
p949
I1
sS'ive'
p950
I1
sS'changed'
p951
I1
sS've'
p952
I8
sS'is'
p953
I42
sS'thus'
p954
I1
sS'it'
p955
I35
sS'surface'
p956
I1
sS'middle'
p957
I1
sS'tiny'
p958
I1
sS'someone'
p959
I1
sS'experts'
p960
I1
sS'in'
p961
I34
sS'happening'
p962
I2
sS'You'
p963
I1
sS'technology'
p964
I2
sS'jet'
p965
I1
sS'if'
p966
I9
sS'gone'
p967
I1
sS'funny'
p968
I6
sS'different'
p969
I2
sS'annoying'
p970
I1
sS'anymore'
p971
I1
sS'actualy'
p972
I1
sS')'
p973
I10
sS'things'
p974
I2
sS'Jareth'
p975
I1
sS'swords'
p976
I1
sS'roar'
p977
I1
sS'same'
p978
I1
sS'any'
p979
I2
sS'strange'
p980
I1
sS'80s'
p981
I2
sS'advise'
p982
I1
sS'gets'
p983
I3
sS'lacks'
p984
I1
sS'showing'
p985
I1
sS'Swayze'
p986
I1
sS'development'
p987
I2
sS'centuries'
p988
I1
sS'Maguire'
p989
I1
sS'I'
p990
I35
sS'logic'
p991
I1
sS'melancholia'
p992
I1
sS'director'
p993
I2
sS'high-tech'
p994
I1
sS'running'
p995
I1
sS'uses'
p996
I1
sS'An'
p997
I1
sS'characters'
p998
I7
sS'weird'
p999
I1
sS'focal'
p1000
I1
sS'kid'
p1001
I1
sS'dark'
p1002
I3
sS'obscurity'
p1003
I1
sS'Schumaker'
p1004
I1
sS'i'
p1005
I13
sS'ALWAYS'
p1006
I1
sS'Is'
p1007
I1
sS'incredible'
p1008
I1
sS'well'
p1009
I11
sS'It'
p1010
I17
sS'Yet'
p1011
I1
sS'thought'
p1012
I6
sS'person'
p1013
I2
sS'without'
p1014
I3
sS'boring'
p1015
I1
sS'greatest'
p1016
I1
sS'In'
p1017
I3
sS'grins'
p1018
I1
sS'the'
p1019
I67
sS'thats'
p1020
I1
sS'prize'
p1021
I1
sS'true'
p1022
I3
sS'teenager'
p1023
I1
sS'If'
p1024
I7
sS'Pete'
p1025
I1
sS'LOVED'
p1026
I1
sS'Satr'
p1027
I1
sS'magical'
p1028
I2
sS'just'
p1029
I11
sS'being'
p1030
I2
sS'money'
p1031
I1
sS'club'
p1032
I1
sS'toby'
p1033
I1
sS'named'
p1034
I1
sS'actions'
p1035
I1
sS'ideas'
p1036
I1
sS'palpatine'
p1037
I1
sS'advertised'
p1038
I1
sS'followed'
p1039
I1
sS'Featuring'
p1040
I1
sS'Listen'
p1041
I1
sS'yet'
p1042
I1
sS'wits'
p1043
I1
sS'Tobey'
p1044
I2
sS'web'
p1045
I1
sS'death'
p1046
I1
sS'morals'
p1047
I1
sS'tight'
p1048
I1
sS'30'
p1049
I1
sS'daydreaming'
p1050
I1
sS'boot'
p1051
I1
sS'had'
p1052
I4
sS'theater'
p1053
I3
sS'killed'
p1054
I2
sS'Binks'
p1055
I4
sS'other'
p1056
I5
sS'board'
p1057
I1
sS'Although'
p1058
I2
sS'bond'
p1059
I1
sS'republic'
p1060
I1
sS'has'
p1061
I12
sS'puppetry'
p1062
I1
sS'smart'
p1063
I1
sS'gave'
p1064
I1
sS'real'
p1065
I2
sS'Both'
p1066
I1
sS'complaint'
p1067
I1
sS'complains'
p1068
I1
sS'read'
p1069
I2
sS'big'
p1070
I2
sS'couple'
p1071
I2
sS'handling'
p1072
I1
sS'lvoe'
p1073
I1
sS'early'
p1074
I2
sS'snob'
p1075
I1
sS'Definitely'
p1076
I1
sS'know'
p1077
I5
sS'mom'
p1078
I1
sS'performance'
p1079
I1
sS'judge'
p1080
I1
sS'world'
p1081
I1
sS'bit'
p1082
I3
sS'Menace'
p1083
I4
sS'disappointed'
p1084
I1
sS'Who'
p1085
I2
sS'd'
p1086
I2
sS'loss'
p1087
I1
sS'trash'
p1088
I1
sS'like'
p1089
I12
sS'Donnie'
p1090
I2
sS'loser'
p1091
I1
sS'Highly'
p1092
I1
sS'chorus'
p1093
I1
sS'remind'
p1094
I1
sS'audience'
p1095
I1
sS'provoking'
p1096
I1
sS't'
p1097
I18
sS'night'
p1098
I1
sS'completely'
p1099
I1
sS'Excellent'
p1100
I1
sS'works'
p1101
I1
sS'chances'
p1102
I1
sS'adversity'
p1103
I1
sS'Before'
p1104
I1
sS'sharp'
p1105
I1
sS'battlefield'
p1106
I1
sS'www'
p1107
I1
sS'because'
p1108
I10
sS'old'
p1109
I1
sS'crowd'
p1110
I1
sS'people'
p1111
I7
sS'absolutely'
p1112
I4
sS'nobody'
p1113
I1
sS'interact'
p1114
I1
sS'some'
p1115
I3
sS'back'
p1116
I5
sS'immortal'
p1117
I2
sS'webs'
p1118
I1
sS'dialouge'
p1119
I1
sS'mirror'
p1120
I1
sS'critique'
p1121
I1
sS'ofter'
p1122
I1
sS'empire'
p1123
I1
sS'5'
p1124
I1
sS'Mary'
p1125
I1
sS'McGuire'
p1126
I1
sS'provided'
p1127
I1
sS'nauseating'
p1128
I1
sS'Rey'
p1129
I1
sS'Lee'
p1130
I1
sS'for'
p1131
I21
sS'stories'
p1132
I1
sS'decision'
p1133
I1
sS'though'
p1134
I4
sS'benefit'
p1135
I1
sS'Gobby'
p1136
I1
sS'creative'
p1137
I2
sS'witty'
p1138
I1
sS'quickly'
p1139
I1
sS'Dave'
p1140
I1
sS'does'
p1141
I3
sS'Let'
p1142
I1
sS'Do'
p1143
I1
sS'Super-Hero'
p1144
I1
sS'Kirsten'
p1145
I3
sS'?'
p1146
I7
sS'He'
p1147
I4
sS'be'
p1148
I17
sS'X-men'
p1149
I1
sS'who'
p1150
I7
sS'bold'
p1151
I1
sS'power'
p1152
I3
sS'plot'
p1153
I6
sS'spider-man'
p1154
I1
sS'Scottish'
p1155
I1
sS'costumes'
p1156
I2
sS'David'
p1157
I9
sS'promos'
p1158
I1
sS'labyrinth'
p1159
I1
sS'newcomer'
p1160
I1
sS'Haggis'
p1161
I1
sS'although'
p1162
I1
sS'innocence'
p1163
I1
sS'standpoint'
p1164
I1
sS'memorable'
p1165
I1
sS'imaginary'
p1166
I1
sS'exciting'
p1167
I1
sS'by'
p1168
I10
sS'Willem'
p1169
I2
sS'on'
p1170
I15
sS'about'
p1171
I9
sS'actual'
p1172
I1
sS'deserved'
p1173
I1
sS'oh'
p1174
I2
sS'attacks'
p1175
I2
sS'of'
p1176
I45
sS'industry'
p1177
I1
sS'&'
p1178
I1
sS'favorite'
p1179
I5
sS'UP'
p1180
I1
sS'Trade'
p1181
I1
sS'self-assurred'
p1182
I1
sS'her'
p1183
I3
sS'stand'
p1184
I2
sS'act'
p1185
I1
sS'emperor'
p1186
I1
sS'or'
p1187
I4
sS'Isn'
p1188
I1
sS'seeing'
p1189
I3
sS'equally'
p1190
I1
sS'childrens'
p1191
I2
sS'keeps'
p1192
I1
sS'Overall'
p1193
I1
sS'image'
p1194
I1
sS'Garth'
p1195
I1
sS'awile'
p1196
I1
sS'yourself'
p1197
I1
sS'down'
p1198
I1
sS'lies'
p1199
I1
sS'turns'
p1200
I1
sS'right'
p1201
I3
sS'promise'
p1202
I1
sS'But'
p1203
I1
sS'female'
p1204
I1
sS'trademark'
p1205
I1
sS'next'
p1206
I5
sS'your'
p1207
I5
sS'/'
p1208
I4
sS'impressed'
p1209
I1
sS'adolescent'
p1210
I1
sS'area'
p1211
I1
sS'aren'
p1212
I1
sS'bunny'
p1213
I1
sS'there'
p1214
I7
sS'question'
p1215
I1
sS'long'
p1216
I2
sS'fight'
p1217
I4
sS'lousy'
p1218
I1
sS'overtime'
p1219
I1
sS'pre-quel'
p1220
I1
sS'way'
p1221
I10
sS'greatness'
p1222
I1
sS'biggest'
p1223
I1
sS':'
p1224
I1
sS'was'
p1225
I27
sS'admit'
p1226
I1
sS'head'
p1227
I1
sS'buy'
p1228
I1
sS'toward'
p1229
I1
sS'complete'
p1230
I1
sS'triggered'
p1231
I1
sS'Star'
p1232
I6
sS'heal'
p1233
I1
sS'sequel'
p1234
I2
sS'lawn'
p1235
I1
sS'but'
p1236
I19
sS'forward'
p1237
I1
sS'films'
p1238
I4
sS'Harry'
p1239
I1
sS'McGregor'
p1240
I2
sS'removed'
p1241
I1
sS'with'
p1242
I20
sS'he'
p1243
I10
sS'directed'
p1244
I1
sS'pull'
p1245
I1
sS'duel'
p1246
I1
sS'made'
p1247
I10
sS'nieces'
p1248
I1
sS'Parks'
p1249
I1
sS'nedry'
p1250
I1
sS'comics'
p1251
I1
sS'wish'
p1252
I1
sS'up'
p1253
I9
sS'us'
p1254
I1
sS'until'
p1255
I1
sS'work'
p1256
I2
sS'maturity'
p1257
I1
sS'Twin'
p1258
I1
sS'TV'
p1259
I1
sS'adore'
p1260
I1
sS'woke'
p1261
I1
sS'mature'
p1262
I1
sS'problem'
p1263
I1
sS'minutes'
p1264
I1
sS'called'
p1265
I1
sS'Boat'
p1266
I1
sS'Scifi'
p1267
I1
sS'castles'
p1268
I1
sS'bearing'
p1269
I1
sS'constant'
p1270
I1
sS'barrymore'
p1271
I1
sS'classic'
p1272
I2
sS'Scotsman'
p1273
I1
sS'm'
p1274
I5
sS'cowboys'
p1275
I1
sS'am'
p1276
I3
sS'life'
p1277
I3
sS'proven'
p1278
I1
sS'general'
p1279
I2
sS'To'
p1280
I3
sS'as'
p1281
I20
sS'at'
p1282
I6
sS'home'
p1283
I1
sS'senate'
p1284
I1
sS'watched'
p1285
I3
sS'moves'
p1286
I1
sS'80'
p1287
I2
sS'film'
p1288
I14
sS'phantom'
p1289
I1
sS'again'
p1290
I4
sS'%'
p1291
I1
sS'Only'
p1292
I1
sS'no'
p1293
I5
sS'May'
p1294
I1
sS'when'
p1295
I6
sS'As'
p1296
I1
sS'control'
p1297
I1
sS'reality'
p1298
I1
sS'Dark'
p1299
I3
sS'Ewan'
p1300
I2
sS'Watson'
p1301
I1
sS'book'
p1302
I6
sS'actors'
p1303
I2
sS'oscar'
p1304
I1
sS'McCleod'
p1305
I1
sS'you'
p1306
I19
sS'Goblin'
p1307
I3
sS'humour'
p1308
I1
sS'shrink'
p1309
I1
sS'Brooks'
p1310
I1
sS'Man'
p1311
I1
sS'Great'
p1312
I3
sS'star'
p1313
I2
sS'potter'
p1314
I1
sS'living'
p1315
I1
sS'keep'
p1316
I1
sS'well-thought'
p1317
I1
sS'remains'
p1318
I1
sS'setting'
p1319
I1
sS'usually'
p1320
I1
sS'plausible'
p1321
I1
sS'immortlas'
p1322
I1
sS'HOT'
p1323
I1
sS'important'
p1324
I1
sS'humor'
p1325
I2
sS'friends'
p1326
I2
sS'underrated'
p1327
I1
sS'stops'
p1328
I1
sS'Sith'
p1329
I1
sS'lead'
p1330
I1
sS'using'
p1331
I1
sS'wife'
p1332
I1
sS'3-7'
p1333
I1
sS'requires'
p1334
I1
sS'age'
p1335
I3
sS'entertainment'
p1336
I1
sS'gr8'
p1337
I1
sS'original'
p1338
I3
sS'2003'
p1339
I1
sS'Second'
p1340
I2
sS'tightest'
p1341
I1
sS'came'
p1342
I1
sS'resembles'
p1343
I1
sS'Empire'
p1344
I1
sS'menace'
p1345
I1
sS'Apparently'
p1346
I1
sS'having'
p1347
I3
sS'once'
p1348
I2
sa(dp1349
S'all'
p1350
I10
sS'concept'
p1351
I1
sS'broke'
p1352
I1
sS'remarkable'
p1353
I1
sS'walking'
p1354
I1
sS'sleep'
p1355
I1
sS'go'
p1356
I2
sS'mon'
p1357
I1
sS'hate'
p1358
I2
sS'poorly'
p1359
I1
sS'Dad'
p1360
I1
sS'whose'
p1361
I1
sS'voter'
p1362
I1
sS'Inaccurate'
p1363
I1
sS'pyschiatric'
p1364
I1
sS'bask'
p1365
I1
sS'disgusting'
p1366
I2
sS'Award'
p1367
I1
sS'to'
p1368
I24
sS'finally'
p1369
I1
sS'whatsoever'
p1370
I2
sS'under'
p1371
I1
sS'Not'
p1372
I4
sS'Let'
p1373
I1
sS'Nasty'
p1374
I1
sS'pride'
p1375
I1
sS'blood-soaked'
p1376
I1
sS'worth'
p1377
I2
sS'degeneration'
p1378
I1
sS'case'
p1379
I1
sS'wished'
p1380
I1
sS'worse'
p1381
I1
sS'torture'
p1382
I1
sS'Canadian'
p1383
I1
sS'very'
p1384
I6
sS'horror'
p1385
I1
sS'overdone'
p1386
I1
sS'woodchipper'
p1387
I1
sS'worst'
p1388
I3
sS'awful'
p1389
I2
sS'fan'
p1390
I1
sS'unseemingly'
p1391
I1
sS'Just'
p1392
I2
sS'level'
p1393
I3
sS'did'
p1394
I3
sS'shock'
p1395
I1
sS'list'
p1396
I1
sS'leave'
p1397
I1
sS'Kill'
p1398
I1
sS'Go'
p1399
I1
sS'guy'
p1400
I1
sS'He'
p1401
I1
sS'wastin'
p1402
I1
sS'talked'
p1403
I1
sS'trend'
p1404
I1
sS'MOVIE'
p1405
I1
sS'Long'
p1406
I1
sS'sign'
p1407
I1
sS'crook'
p1408
I1
sS'Only'
p1409
I1
sS'Mindless'
p1410
I1
sS'makers'
p1411
I1
sS'Red'
p1412
I1
sS'inaccurate'
p1413
I1
sS'blue'
p1414
I1
sS'what'
p1415
I6
sS'errors'
p1416
I1
sS'nej'
p1417
I1
sS'Bruce'
p1418
I3
sS'beaten'
p1419
I1
sS'while'
p1420
I3
sS'enjoyed'
p1421
I1
sS'Now'
p1422
I1
sS'goes'
p1423
I1
sS'ugliest'
p1424
I1
sg121
I1
sS'ever'
p1425
I7
sS'scenery'
p1426
I1
sS'sharks'
p1427
I3
sS'Stormare'
p1428
I1
sS'exercize'
p1429
I1
sS'Hopkins'
p1430
I1
sS'asault'
p1431
I1
sS'never'
p1432
I3
sS'here'
p1433
I2
sS'understanding'
p1434
I1
sS'hours'
p1435
I1
sS'TONS'
p1436
I1
sS'let'
p1437
I1
sS'Gibson'
p1438
I5
sS'Pulp'
p1439
I2
sS'change'
p1440
I1
sS'wait'
p1441
I1
sS'box'
p1442
I1
sS'boy'
p1443
I1
sS'great'
p1444
I2
sS'kids'
p1445
I1
sS'talent'
p1446
I1
sS'brilliant'
p1447
I1
sS'settles'
p1448
I1
sS'extreme'
p1449
I1
sS'unwatchable'
p1450
I1
sS'situations'
p1451
I1
sS'NOT'
p1452
I2
sS'opinion'
p1453
I1
sS'makes'
p1454
I2
sS'appropriately'
p1455
I1
sS'swearing'
p1456
I1
sS'love'
p1457
I1
sS'humour'
p1458
I1
sS'spooky'
p1459
I1
sS'ExitSign'
p1460
I1
sS'stupider'
p1461
I1
sS'1st'
p1462
I1
sS'unpleasantness'
p1463
I1
sS'total'
p1464
I2
sS'everybody'
p1465
I1
sS'plot'
p1466
I3
sS'crap'
p1467
I3
sS'takes'
p1468
I1
sS'would'
p1469
I5
sg1178
I1
sS'contains'
p1470
I1
sS'Huh'
p1471
I1
sS'negative'
p1472
I2
sS'throw'
p1473
I2
sS'few'
p1474
I1
sS'live'
p1475
I1
sS'doubt'
p1476
I1
sS'wondering'
p1477
I1
sS'recommend'
p1478
I1
sS'films'
p1479
I3
sS'forefathers'
p1480
I1
sS'tell'
p1481
I2
sS'more'
p1482
I3
sS'horses'
p1483
I1
sS'wretched'
p1484
I1
sS'everywhere'
p1485
I1
sS'stick'
p1486
I1
sS'rubbish'
p1487
I1
sS'style-over-substance'
p1488
I1
sS'sorry'
p1489
I1
sS'glad'
p1490
I1
sS'must'
p1491
I1
sS'me'
p1492
I7
sS'balls'
p1493
I1
sS'word'
p1494
I1
sS'g'
p1495
I1
sS'hour'
p1496
I1
sS'Crowe'
p1497
I1
sS'this'
p1498
I31
sS'recall'
p1499
I1
sS'challenge'
p1500
I1
sS'created'
p1501
I1
sS'abortion'
p1502
I1
sS'Most'
p1503
I1
sS'movies'
p1504
I10
sS'can'
p1505
I8
sS'Scandinavians'
p1506
I1
sS'male'
p1507
I1
sS'my'
p1508
I10
sS'history'
p1509
I2
sS'beautiful'
p1510
I1
sS'antagonists'
p1511
I1
sS'degenerate'
p1512
I1
sS'give'
p1513
I1
sS'daddys'
p1514
I1
sS'high'
p1515
I1
sS'something'
p1516
I3
sS'want'
p1517
I3
sS'sense'
p1518
I2
sS'Glasgow'
p1519
I1
sS'rape'
p1520
I1
sS'sci-fi'
p1521
I1
sg280
I19
sS'needs'
p1522
I2
sS'BRAVE'
p1523
I1
sS'end'
p1524
I1
sS'Godfather'
p1525
I1
sS'Watching'
p1526
I1
sS'MANY'
p1527
I1
sS'acts'
p1528
I1
sS'off'
p1529
I4
sS'ONE'
p1530
I2
sS'how'
p1531
I4
sS'stupidity'
p1532
I1
sS'Fall'
p1533
I1
sS'Why'
p1534
I2
sS'stock'
p1535
I1
sg301
I5
sS'minority'
p1536
I2
sS'mispronounce'
p1537
I1
sS'stop'
p1538
I2
sS'Joel'
p1539
I1
sS'spot'
p1540
I1
sS'Glorifying'
p1541
I1
sg729
I1
sS'Roman'
p1542
I1
sS'jumping'
p1543
I1
sS'Clowns'
p1544
I1
sS'fits'
p1545
I1
sS'such'
p1546
I1
sS'suck'
p1547
I1
sS'brainless'
p1548
I1
sS'man'
p1549
I2
sg324
I26
sS'All'
p1550
I1
sS'drop'
p1551
I1
sS'remember'
p1552
I1
sS'dreadful'
p1553
I1
sS'Fury'
p1554
I1
sS'maybe'
p1555
I1
sS'sit'
p1556
I1
sS'One'
p1557
I4
sS'FAR'
p1558
I1
sS'so'
p1559
I12
sS'Another'
p1560
I1
sS'every'
p1561
I2
sS'What'
p1562
I2
sS'help'
p1563
I1
sS'burn'
p1564
I1
sS'oh'
p1565
I2
sS'over'
p1566
I7
sS'years'
p1567
I2
sS'befall'
p1568
I1
sS'through'
p1569
I2
sS'majorly'
p1570
I1
sS'THE'
p1571
I1
sS'before'
p1572
I1
sS'His'
p1573
I1
sS'20'
p1574
I1
sS'RATING'
p1575
I1
sS'pronto'
p1576
I1
sg381
I32
sS'actually'
p1577
I2
sS'better'
p1578
I3
sS'Osmet'
p1579
I1
sS'routines'
p1580
I1
sS'might'
p1581
I1
sS'dad'
p1582
I1
sS'then'
p1583
I1
sS'them'
p1584
I1
sS'someone'
p1585
I1
sS'Coppola'
p1586
I1
sS'supporter'
p1587
I1
sS'Bad'
p1588
I1
sS'cutting'
p1589
I1
sS'effects'
p1590
I1
sS'they'
p1591
I2
sS'half'
p1592
I2
sS'not'
p1593
I9
sS'over-rated'
p1594
I1
sS'hunted'
p1595
I1
sS'yourself'
p1596
I1
sS'viewers'
p1597
I1
sS'sucked'
p1598
I3
sS'going'
p1599
I2
sS'Saving'
p1600
I1
sS'occasions'
p1601
I1
sS'didn'
p1602
I3
sS'dumps'
p1603
I1
sS'good'
p1604
I3
sS'doesnt'
p1605
I1
sS'Scottish'
p1606
I1
sS'found'
p1607
I5
sS'everyone'
p1608
I1
sS'Wow'
p1609
I1
sS'hard'
p1610
I1
sS'idea'
p1611
I2
sS'Won'
p1612
I1
sS'expect'
p1613
I1
sS'undertake'
p1614
I1
sS'forgot'
p1615
I1
sS'our'
p1616
I3
sS'Crap'
p1617
I1
sS'Save'
p1618
I1
sS'out'
p1619
I4
sS'Yuck'
p1620
I1
sg453
I25
sS'entertainment'
p1621
I2
sS'William'
p1622
I1
sS're'
p1623
I2
sS'acting'
p1624
I6
sS'7'
p1625
I1
sS'got'
p1626
I2
sS'get'
p1627
I2
sS'red'
p1628
I1
sS'ass'
p1629
I1
sS'This'
p1630
I8
sS'million'
p1631
I1
sS'little'
p1632
I2
sS'IT'
p1633
I1
sS'Stupid'
p1634
I1
sS'Ryan'
p1635
I1
sS'havent'
p1636
I1
sS'care'
p1637
I1
sS'scary'
p1638
I4
sS'training'
p1639
I1
sS'couldn'
p1640
I1
sS'language'
p1641
I1
sS'People'
p1642
I1
sS'rule'
p1643
I1
sS'could'
p1644
I3
sS'terrible'
p1645
I4
sS'thing'
p1646
I3
sS'disturbed'
p1647
I1
sS'think'
p1648
I5
sS'first'
p1649
I4
sS'indebted'
p1650
I1
sS'dont'
p1651
I1
sS'There'
p1652
I2
sS'scene'
p1653
I1
sS'one'
p1654
I12
sS'done'
p1655
I1
sS'another'
p1656
I2
sS'wasn'
p1657
I2
sS'message'
p1658
I1
sS'cheesy'
p1659
I1
sS'unscary'
p1660
I1
sS'city'
p1661
I1
sS'story'
p1662
I2
sS'checked'
p1663
I1
sS'script'
p1664
I1
sS'Academy'
p1665
I1
sS'top'
p1666
I1
sS'twisted'
p1667
I1
sS'anyone'
p1668
I5
sS'their'
p1669
I2
sS'too'
p1670
I2
sS'hollywood'
p1671
I1
sS'really'
p1672
I6
sS'gives'
p1673
I1
sS'murder'
p1674
I2
sS'lot'
p1675
I1
sS'that'
p1676
I18
sS'viewing'
p1677
I1
sS'Awful'
p1678
I3
sS'part'
p1679
I2
sS'predictable'
p1680
I2
sS'corny'
p1681
I2
sS'wasted'
p1682
I3
sS'gruesome'
p1683
I1
sS'believe'
p1684
I4
sS'unrealistic'
p1685
I1
sS'than'
p1686
I6
sS'kind'
p1687
I2
sS'15'
p1688
I1
sS'steller'
p1689
I1
sS'boring'
p1690
I9
sS'bother'
p1691
I1
sS'scenes'
p1692
I3
sS'optimism'
p1693
I1
sS'appealing'
p1694
I1
sS'future'
p1695
I1
sS'silly'
p1696
I1
sS'were'
p1697
I2
sS'asleep'
p1698
I1
sS'Peter'
p1699
I1
sS'Gladiator'
p1700
I1
sS'and'
p1701
I28
sS'donkey'
p1702
I1
sS'phobia'
p1703
I1
sS'false'
p1704
I1
sS'bare'
p1705
I1
sS'God'
p1706
I1
sS'mind'
p1707
I1
sS'say'
p1708
I1
sS'selling'
p1709
I1
sS'rent'
p1710
I1
sS'have'
p1711
I10
sS'sentences'
p1712
I1
sS'seen'
p1713
I4
sS'seem'
p1714
I1
sS'saw'
p1715
I1
sS'any'
p1716
I6
sS'Buscemi'
p1717
I1
sS'dancing'
p1718
I1
sS'De'
p1719
I1
sg914
I1
sS'also'
p1720
I3
sS'shoot'
p1721
I2
sS'useless'
p1722
I1
sS'which'
p1723
I5
sS'Genre'
p1724
I1
sS'Scorsese'
p1725
I1
sS'nightie'
p1726
I1
sS'even'
p1727
I3
sS'sure'
p1728
I1
sS'unless'
p1729
I1
sS'theatre'
p1730
I1
sS'who'
p1731
I7
sS'M'
p1732
I1
sS'paid'
p1733
I1
sS'falls'
p1734
I1
sS'most'
p1735
I4
sS'sodomy'
p1736
I1
sS'Walked'
p1737
I1
sS'nothing'
p1738
I2
sS'plays'
p1739
I2
sS'The'
p1740
I11
sS'ford'
p1741
I1
sS'extremely'
p1742
I1
sS'salary'
p1743
I1
sS'don'
p1744
I7
sS'especially'
p1745
I2
sS'considered'
p1746
I1
sS'Mommy'
p1747
I1
sS'popularity'
p1748
I1
sg1274
I1
sS'face'
p1749
I2
sS'looked'
p1750
I1
sS'ENOUGH'
p1751
I1
sS'ridiculous'
p1752
I1
sS'storyline'
p1753
I1
sS'pictures'
p1754
I1
sS'Retched'
p1755
I1
sS'If'
p1756
I3
sS'normally'
p1757
I1
sS'rating'
p1758
I1
sS'atmosphere'
p1759
I1
sS'usuall'
p1760
I1
sS'show'
p1761
I2
sS'able'
p1762
I1
sS'Rangers'
p1763
I1
sS'bright'
p1764
I1
sS'Daddy'
p1765
I1
sS'preformance'
p1766
I1
sS'find'
p1767
I1
sS'Granted'
p1768
I1
sS'Takes'
p1769
I1
sS'talks'
p1770
I1
sS'copy'
p1771
I1
sS'hadn'
p1772
I1
sg726
I6
sS'scurrilous'
p1773
I1
sS'RIP'
p1774
I1
sS'should'
p1775
I5
sS'being'
p1776
I2
sS'only'
p1777
I5
sS'explicitly'
p1778
I1
sS'Traffic'
p1779
I1
sS'travesty'
p1780
I1
sS'factor'
p1781
I1
sS'handsome'
p1782
I1
sS'inferior'
p1783
I1
sS'do'
p1784
I4
sS'his'
p1785
I5
sS'OFF'
p1786
I1
sS'gains'
p1787
I1
sS'watching'
p1788
I2
sS'Violence'
p1789
I1
sS'watch'
p1790
I7
sS'ones'
p1791
I1
sS'timing'
p1792
I1
sS'nasty'
p1793
I2
sS'trade'
p1794
I1
sS'him'
p1795
I1
sS'connery'
p1796
I1
sS'unnecesary'
p1797
I1
sS'Forget'
p1798
I1
sS'girl'
p1799
I1
sS'isnt'
p1800
I1
sS'idiotic'
p1801
I1
sS'Kong'
p1802
I1
sS'book'
p1803
I1
sS'bad'
p1804
I6
sS'stupid'
p1805
I1
sS'she'
p1806
I1
sS'gotten'
p1807
I1
sS'where'
p1808
I3
sS'valid'
p1809
I1
sS'ears'
p1810
I1
sS'blew'
p1811
I1
sS'SAYS'
p1812
I1
sS'swept'
p1813
I1
sS'imitate'
p1814
I1
sS'arts'
p1815
I1
sS'fluffy'
p1816
I1
sS'pleasing'
p1817
I1
sS'C'
p1818
I1
sS'gangster'
p1819
I1
sS'see'
p1820
I5
sS'dumb'
p1821
I2
sS'are'
p1822
I4
sS'John'
p1823
I2
sS'best'
p1824
I1
sS'seems'
p1825
I1
sS'That'
p1826
I1
sS'lots'
p1827
I1
sS'movie'
p1828
I33
sS'away'
p1829
I1
sS'Blair'
p1830
I1
sS'overall'
p1831
I1
sS'plummeting'
p1832
I1
sS'its'
p1833
I2
sS'written'
p1834
I1
sS'pastey'
p1835
I1
sS'Rosanna'
p1836
I1
sS'action'
p1837
I1
sS'horrible'
p1838
I3
sS'flicks'
p1839
I1
sS'King'
p1840
I1
sS'we'
p1841
I1
sS'men'
p1842
I1
sS'bed'
p1843
I1
sS'screen'
p1844
I2
sS'deliver'
p1845
I1
sS'however'
p1846
I1
sS'twaddle'
p1847
I1
sS'killing'
p1848
I1
sS'embarrassment'
p1849
I1
sS'premise'
p1850
I1
sS'franchise'
p1851
I1
sS'spark'
p1852
I1
sS'ja'
p1853
I1
sS'faced'
p1854
I1
sS'boloney'
p1855
I1
sS'feeling'
p1856
I2
sS'last'
p1857
I1
sS'limits'
p1858
I1
sS'profanity'
p1859
I1
sS'Hard'
p1860
I1
sS'Shamala'
p1861
I1
sS'overrated'
p1862
I2
sS'Steve'
p1863
I1
sS'somewhere'
p1864
I1
sg858
I12
sS'bet'
p1865
I1
sS'remake'
p1866
I1
sS'whole'
p1867
I3
sS'comes'
p1868
I1
sS'screenplay'
p1869
I1
sS'liked'
p1870
I2
sS'tough'
p1871
I1
sS'point'
p1872
I3
sS'appeared'
p1873
I1
sS'senseless'
p1874
I1
sS'acted'
p1875
I1
sS'Fiction'
p1876
I2
sS'shaman'
p1877
I1
sS'likes'
p1878
I1
sS'Way'
p1879
I1
sS'respect'
p1880
I2
sS'trust'
p1881
I1
sS'worthless'
p1882
I2
sS'Sure'
p1883
I1
sS'basis'
p1884
I1
sS'decent'
p1885
I1
sS'cinema'
p1886
I1
sS'creativity'
p1887
I1
sS'But'
p1888
I2
sg897
I52
sS'viewer'
p1889
I1
sS'much'
p1890
I3
sS'Lynch'
p1891
I1
sS'freak'
p1892
I1
sS'waste'
p1893
I5
sS'wants'
p1894
I1
sS'dialogue'
p1895
I1
sS'lived'
p1896
I1
sS'painted'
p1897
I1
sS'turned'
p1898
I1
sS'else'
p1899
I3
sS'nihilistic'
p1900
I1
sS'understand'
p1901
I1
sS'Night'
p1902
I1
sS'catch'
p1903
I1
sS'general'
p1904
I1
sS'those'
p1905
I3
sS'And'
p1906
I2
sS'exception'
p1907
I1
sS'look'
p1908
I1
sS'these'
p1909
I1
sS'plain'
p1910
I1
sS'cash'
p1911
I1
sS'value'
p1912
I1
sS'bordom'
p1913
I1
sS'will'
p1914
I2
sS'Absolutely'
p1915
I1
sS'weren'
p1916
I1
sS'suppose'
p1917
I1
sS'many'
p1918
I1
sS'Hayley'
p1919
I1
sS'seven'
p1920
I1
sS've'
p1921
I2
sS'wouldn'
p1922
I1
sS'iq'
p1923
I1
sS'is'
p1924
I25
sS'it'
p1925
I22
sS'rip'
p1926
I1
sS'middle'
p1927
I1
sS'cant'
p1928
I1
sS'exit'
p1929
I1
sS'im'
p1930
I1
sS'in'
p1931
I16
sS'You'
p1932
I1
sS'Historically'
p1933
I1
sS'if'
p1934
I4
sS'funny'
p1935
I3
sg973
I6
sS'things'
p1936
I3
sS'make'
p1937
I2
sS'admit'
p1938
I1
sS'Witch'
p1939
I1
sS'unfortunate'
p1940
I1
sS'events'
p1941
I1
sS'visually'
p1942
I1
sS'used'
p1943
I1
sS'emotionally'
p1944
I1
sg990
I24
sS'IS'
p1945
I1
sS'Horrendous'
p1946
I1
sS'earned'
p1947
I1
sS'mutha'
p1948
I1
sS'director'
p1949
I1
sS'popcorn'
p1950
I1
sS'running'
p1951
I2
sS'purpose'
p1952
I1
sS'mentioning'
p1953
I1
sS'dark'
p1954
I1
sS'task'
p1955
I1
sS'theater'
p1956
I2
sg1005
I5
sS'well'
p1957
I2
sS'It'
p1958
I11
sS'thought'
p1959
I5
sS'person'
p1960
I1
sS'shamala'
p1961
I1
sS'350'
p1962
I1
sS'the'
p1963
I34
sS'left'
p1964
I3
sS'Uma'
p1965
I1
sS'Russell'
p1966
I1
sS'just'
p1967
I12
sS'less'
p1968
I1
sS'moments'
p1969
I1
sS'money'
p1970
I3
sS'HORROR'
p1971
I1
sS'BH'
p1972
I1
sS'disguise'
p1973
I1
sS'violent'
p1974
I2
sS'40'
p1975
I1
sS'yet'
p1976
I2
sS'blow'
p1977
I1
sS'clunkers'
p1978
I1
sS'$'
p1979
I1
sS'hated'
p1980
I4
sS'boot'
p1981
I1
sS'had'
p1982
I3
sS'except'
p1983
I1
sS'Travolta'
p1984
I2
sS'Braveheart'
p1985
I2
sS'interested'
p1986
I1
sS'Predictable'
p1987
I2
sS'Although'
p1988
I1
sS'actors'
p1989
I2
sS'has'
p1990
I6
sS'Willis'
p1991
I4
sS'gave'
p1992
I3
sS'real'
p1993
I1
sS'midshow'
p1994
I1
sS'around'
p1995
I2
sS'Oh'
p1996
I1
sS'Shalyman'
p1997
I1
sS'falters'
p1998
I1
sS'judgement'
p1999
I1
sS'possibly'
p2000
I1
sS'truely'
p2001
I1
sS'know'
p2002
I3
sS'performance'
p2003
I1
sS'world'
p2004
I1
sS'paint'
p2005
I1
sS'Mann'
p2006
I1
sS'like'
p2007
I7
sS'desire'
p2008
I1
sS'Tarantino'
p2009
I5
sg1086
I3
sS'overhyped'
p2010
I1
sS'cretinous'
p2011
I1
sS'dreck'
p2012
I1
sg1097
I17
sS'lose'
p2013
I1
sS'become'
p2014
I1
sS'stupedist'
p2015
I1
sS'BOOOOORRRRRRIIIIINNNNNGGGGG'
p2016
I1
sS'right'
p2017
I1
sS'old'
p2018
I4
sS'crafted'
p2019
I1
sS'people'
p2020
I6
sS'sends'
p2021
I1
sS'fake'
p2022
I1
sS'some'
p2023
I5
sS'back'
p2024
I1
sS'dead'
p2025
I1
sS'50'
p2026
I2
sS'Arquette'
p2027
I1
sS'Amazing'
p2028
I1
sS'guess'
p2029
I1
sS'happens'
p2030
I1
sS'pronounced'
p2031
I1
sS'for'
p2032
I9
sS'mummy'
p2033
I1
sS'Mel'
p2034
I4
sS'avoid'
p2035
I1
sS'Killer'
p2036
I1
sS'Quite'
p2037
I1
sS'wrong'
p2038
I1
sS'does'
p2039
I2
sS'Palma'
p2040
I1
sS'screwed'
p2041
I2
sS'epic'
p2042
I1
sg1146
I7
sS'laughing'
p2043
I1
sS'be'
p2044
I8
sS'knew'
p2045
I1
sS'medieval'
p2046
I1
sS'HEART'
p2047
I1
sS'Bill'
p2048
I1
sS'iconic'
p2049
I1
sS'David'
p2050
I1
sS'clunker'
p2051
I1
sS'Sweden'
p2052
I1
sS'nowhere'
p2053
I3
sS'from'
p2054
I6
sS'super'
p2055
I1
sS'by'
p2056
I6
sS'hiding'
p2057
I1
sS'on'
p2058
I6
sS'about'
p2059
I1
sS'ok'
p2060
I1
sS'anything'
p2061
I2
sS'getting'
p2062
I1
sS'of'
p2063
I31
sS'dollars'
p2064
I1
sS'violence'
p2065
I2
sS'drama'
p2066
I2
sS'camels'
p2067
I1
sS'stand'
p2068
I1
sS'or'
p2069
I6
sS'Willes'
p2070
I1
sS'seeing'
p2071
I1
sS'Hong'
p2072
I1
sS'own'
p2073
I1
sS'Outer'
p2074
I1
sS'Private'
p2075
I1
sS'Wallace'
p2076
I1
sS'No'
p2077
I2
sS'into'
p2078
I3
sS'errands'
p2079
I1
sS'two'
p2080
I1
sS'down'
p2081
I1
sS'because'
p2082
I4
sS'been'
p2083
I4
sS'couldnt'
p2084
I1
sS'quickly'
p2085
I1
sS'your'
p2086
I1
sS'her'
p2087
I1
sS'whom'
p2088
I1
sS'there'
p2089
I3
sS'long'
p2090
I2
sS'welldone'
p2091
I1
sS'start'
p2092
I1
sS'Fell'
p2093
I1
sS'low'
p2094
I1
sS'way'
p2095
I6
sS'biggest'
p2096
I1
sg1224
I1
sS'was'
p2097
I19
sS'war'
p2098
I1
sS'combined'
p2099
I1
sS'head'
p2100
I1
sS'himself'
p2101
I2
sS'complete'
p2102
I1
sS'magnificent'
p2103
I1
sS'Uh-uh'
p2104
I1
sS'Well'
p2105
I1
sS'but'
p2106
I11
sS'Aside'
p2107
I1
sS'repeated'
p2108
I1
sS'gore'
p2109
I1
sS'amusing'
p2110
I1
sS'trying'
p2111
I2
sS'with'
p2112
I11
sS'eat'
p2113
I1
sS'he'
p2114
I9
sS'made'
p2115
I2
sS'martial'
p2116
I1
sS'threquel'
p2117
I1
sS'up'
p2118
I8
sS'work'
p2119
I2
sS'Warped'
p2120
I1
sS'dirty'
p2121
I1
sS'They'
p2122
I1
sS'Tony'
p2123
I1
sS'piece'
p2124
I2
sS'minutes'
p2125
I3
sS'called'
p2126
I1
sS'sort'
p2127
I1
sS'v'
p2128
I1
sS'disgrace'
p2129
I1
sS'Space'
p2130
I1
sS'taste'
p2131
I1
sS'accents'
p2132
I1
sS'am'
p2133
I1
sS'watches'
p2134
I1
sS'an'
p2135
I5
sS'How'
p2136
I1
sS'as'
p2137
I7
sS'Edward'
p2138
I1
sS'at'
p2139
I5
sS'watched'
p2140
I2
sS'annoying'
p2141
I1
sS'happen'
p2142
I1
sS'film'
p2143
I10
sS'again'
p2144
I2
sS'beyond'
p2145
I4
sS'no'
p2146
I8
sS'Quentin'
p2147
I2
sS'when'
p2148
I6
sS'fraudulent'
p2149
I1
sS'actor'
p2150
I3
sS'rubber'
p2151
I1
sS'other'
p2152
I3
sS'role'
p2153
I1
sS'sick'
p2154
I3
sS'Personally'
p2155
I1
sS'test'
p2156
I1
sS'you'
p2157
I9
sS'trash'
p2158
I1
sS'Man'
p2159
I2
sS'poor'
p2160
I1
sS'junk'
p2161
I1
sS'star'
p2162
I1
sS'Like'
p2163
I1
sS'models'
p2164
I1
sS'Boring'
p2165
I1
sS'Hunt'
p2166
I1
sS'problems'
p2167
I1
sS'chance'
p2168
I1
sS'important'
p2169
I1
sS'utterly'
p2170
I1
sS'Oooohhhh'
p2171
I1
sS'friends'
p2172
I1
sS'younger'
p2173
I1
sS'e'
p2174
I1
sS'walked'
p2175
I2
sS'An'
p2176
I1
sS'directors'
p2177
I1
sS'time'
p2178
I11
sS'push'
p2179
I1
sS'serious'
p2180
I1
sS'Empire'
p2181
I1
sS'Jaws'
p2182
I3
sS'having'
p2183
I2
saI87
aI72
a.