(lp0
(dp1
S'saying'
p2
I1
sS'geuss'
p3
I1
sS'since'
p4
I1
sS'Based'
p5
I1
sS'help'
p6
I1
sS'just'
p7
I2
sS'young'
p8
I3
sS'when'
p9
I1
sS'over'
p10
I1
sS'child'
p11
I1
sS'soon'
p12
I1
sS'suspenseful'
p13
I1
sS'missle'
p14
I1
sS'top'
p15
I1
sS'attempts'
p16
I1
sS'teetering'
p17
I1
sS'THEME'
p18
I1
sS'oldest'
p19
I1
sS'Louisiana'
p20
I1
sS'delivers'
p21
I1
sS'before'
p22
I1
sS'blow'
p23
I1
sS'witnesses'
p24
I1
sS'We'
p25
I1
sS'suicide'
p26
I2
sS'thrilling'
p27
I2
sS'JOHNNY'
p28
I1
sS'Meanwhile'
p29
I1
sS'surprises'
p30
I1
sS'had'
p31
I1
sS','
p32
I28
sS'him'
p33
I2
sS'to'
p34
I17
sS'add'
p35
I1
sS'location'
p36
I1
sS'rich'
p37
I1
sS'Life'
p38
I1
sS'actors'
p39
I1
sS'has'
p40
I1
sS'hope'
p41
I1
sS'take'
p42
I1
sS'good'
p43
I1
sS'around'
p44
I1
sS'get'
p45
I1
sS'very'
p46
I3
sS'dvds'
p47
I1
sS'couple'
p48
I1
sS'watch'
p49
I2
sS'L'
p50
I1
sS'flew'
p51
I1
sS'Viggo'
p52
I1
sS'they'
p53
I3
sS'not'
p54
I1
sS'trouble'
p55
I1
sS'highly'
p56
I1
sS'orphaned'
p57
I1
sS'dare'
p58
I1
sS'FIRST'
p59
I1
sS'aaaaaaaa'
p60
I1
sS'OMINOUS'
p61
I1
sS'Grisham'
p62
I1
sS'like'
p63
I1
sS'did'
p64
I2
sS'follows'
p65
I1
sS'cool'
p66
I1
sS'superb'
p67
I1
sS'Dern'
p68
I1
sS'stuff'
p69
I1
sS'THE'
p70
I1
sS't'
p71
I4
sS'letting'
p72
I1
sS'Go'
p73
I1
sS'starred'
p74
I1
sS'inexperienced'
p75
I1
sS'helps'
p76
I1
sS'Brad'
p77
I1
sS'because'
p78
I1
sS'seeks'
p79
I2
sS'another'
p80
I1
sS'District'
p81
I1
sS'Script'
p82
I1
sS'Mortenson'
p83
I1
sS'action-comedy'
p84
I1
sS'directing'
p85
I1
sS'Great'
p86
I2
sS'up'
p87
I1
sS'see'
p88
I4
sS'been'
p89
I1
sS'are'
p90
I1
sS'lawyer'
p91
I3
sS'year'
p92
I1
sS'close'
p93
I1
sS'John'
p94
I1
sS'best'
p95
I4
sS'out'
p96
I2
sS'what'
p97
I2
sS'mafia'
p98
I2
sS"'"
p99
I17
sS'confirm'
p100
I1
sS'Bruce'
p101
I1
sS'movie'
p102
I9
sS'Firefighters'
p103
I1
sS'missing'
p104
I1
sS'revolves'
p105
I1
sS'However'
p106
I1
sS'/'
p107
I2
sS'find'
p108
I1
sS'witty'
p109
I1
sS're'
p110
I1
sS'acting'
p111
I2
sS'between'
p112
I1
sS'awesome'
p113
I1
sS'teens'
p114
I1
sS'?'
p115
I2
sS'He'
p116
I1
sS'body'
p117
I1
sS'be'
p118
I2
sS'Rush'
p119
I2
sS'recently'
p120
I1
sS'Hour'
p121
I2
sS'plot'
p122
I1
sS'This'
p123
I4
sS'commits'
p124
I1
sS'Russell'
p125
I1
sS'popular'
p126
I2
sS'job'
p127
I2
sS'slow'
p128
I1
sS'no'
p129
I1
sS'ALSO'
p130
I1
sS'genre'
p131
I1
sS'SEXY'
p132
I1
sS'by'
p133
I2
sS'Susan'
p134
I1
sS'wait'
p135
I1
sS'on'
p136
I2
sS'about'
p137
I3
sS'substance'
p138
I1
sS'jet'
p139
I2
sS'Johnny'
p140
I3
sS'confides'
p141
I1
sS'brilliant'
p142
I1
sS'of'
p143
I11
sS'S'
p144
I1
sS'times'
p145
I1
sS'drama'
p146
I1
sS'Roy'
p147
I1
sS's'
p148
I4
sS'swear'
p149
I1
sS'('
p150
I3
sS'action'
p151
I1
sS'senator'
p152
I1
sS'or'
p153
I2
sS'comes'
p154
I1
sS'Depp'
p155
I3
sS'this'
p156
I6
sS'fantastic'
p157
I1
sS'DVD'
p158
I1
sS'second'
p159
I1
sS'Rock'
p160
I1
sS'Firefighter'
p161
I1
sS'scene'
p162
I1
sS'one'
p163
I4
sS'Also'
p164
I1
sS'done'
p165
I2
sS'fast'
p166
I1
sS'laugh'
p167
I1
sS'action-wise'
p168
I1
sS'Client'
p169
I3
sS'Epic'
p170
I1
sS'career'
p171
I1
sS'Sarandon'
p172
I1
sS'hoping'
p173
I1
sS'rented'
p174
I1
sS'impressed'
p175
I1
sS'story'
p176
I1
sS'from'
p177
I1
sS'puts'
p178
I1
sS'hes'
p179
I1
sS'WROTE'
p180
I1
sS'Ladder'
p181
I1
sS'people'
p182
I2
sS'Overall'
p183
I1
sS'long'
p184
I2
sS'.'
p185
I46
sS'few'
p186
I1
sS'live'
p187
I1
sS'2'
p188
I1
sS'STEALS'
p189
I1
sS'lot'
p190
I1
sS'seriously'
p191
I1
sS'Reggie'
p192
I1
sS'believe'
p193
I1
sS'was'
p194
I12
sS'start'
p195
I2
sS'more'
p196
I1
sS'AGAIN'
p197
I1
sS'life'
p198
I1
sS'buy'
p199
I1
sS'knows'
p200
I1
sS'enough'
p201
I1
sS'Solid'
p202
I1
sS'CHARACTER'
p203
I1
sS'yet'
p204
I1
sS'great'
p205
I5
sS'but'
p206
I1
sS'What'
p207
I1
sS'Emt'
p208
I1
sS'kids'
p209
I1
sS'Proof'
p210
I1
sS'excellent'
p211
I1
sS'beat'
p212
I1
sS'quick'
p213
I1
sS'Entertaining'
p214
I1
sS'Mark'
p215
I3
sS'with'
p216
I5
sS'haven'
p217
I1
sS'glad'
p218
I1
sS'he'
p219
I2
sS'loved'
p220
I1
sS'buddy'
p221
I1
sS'novel'
p222
I1
sS'Love'
p223
I1
sS'being'
p224
I1
sS'Crowe'
p225
I1
sS'Vol'
p226
I1
sS'ride'
p227
I1
sS'launch'
p228
I1
sS'Diane'
p229
I1
sS'say'
p230
I3
sS'will'
p231
I2
sS'movies'
p232
I3
sS'while'
p233
I1
sS'can'
p234
I3
sS'how'
p235
I1
sS'involved'
p236
I1
sS'Renfro'
p237
I2
sS'loving'
p238
I1
sS'my'
p239
I1
sS'and'
p240
I15
sS'Funny'
p241
I1
sS'3'
p242
I1
sS've'
p243
I3
sS'well'
p244
I2
sS'is'
p245
I7
sS'Lane'
p246
I1
sS'it'
p247
I13
sS'an'
p248
I4
sS'helped'
p249
I1
sS'really'
p250
I1
sS'as'
p251
I9
sS'suspense'
p252
I1
sS'at'
p253
I3
sS'have'
p254
I3
sS'in'
p255
I6
sS'SHOW'
p256
I1
sS'seen'
p257
I4
sS'seem'
p258
I1
sS'create'
p259
I1
sS'Sway'
p260
I2
sS'tells'
p261
I1
sS'Leelee'
p262
I1
sS'if'
p263
I1
sS'!'
p264
I2
sS'forced'
p265
I1
sS'boy'
p266
I1
sS'anymore'
p267
I1
sS'49'
p268
I1
sS')'
p269
I3
sS'saw'
p270
I2
sS'make'
p271
I1
sS'that'
p272
I3
sS'-'
p273
I1
sS'literally'
p274
I1
sS'sharif'
p275
I1
sS'Foltrigg'
p276
I1
sS'recommended'
p277
I1
sS'role'
p278
I1
sS'film'
p279
I2
sS'ambitious'
p280
I1
sS'big'
p281
I1
sS'--'
p282
I1
sS'HE'
p283
I1
sS'goosebumps'
p284
I1
sS'A'
p285
I1
sS'all'
p286
I3
sS'finish'
p287
I1
sS'star'
p288
I1
sS'Like'
p289
I1
sS'again'
p290
I1
sS'I'
p291
I20
sS'crime'
p292
I1
sS'who'
p293
I2
sS'scenes'
p294
I1
sS'OWN'
p295
I1
sS'collection'
p296
I1
sS'much'
p297
I1
sS'Thought'
p298
I1
sS'most'
p299
I3
sS'HIS'
p300
I1
sS'MUSIC'
p301
I1
sS'The'
p302
I7
sS'entertaining'
p303
I1
sS'thriller'
p304
I4
sS'a'
p305
I15
sS'Attorney'
p306
I1
sS'don'
p307
I1
sS'especially'
p308
I1
sS'moments'
p309
I1
sS'largely'
p310
I1
sS'i'
p311
I2
sS'performances'
p312
I1
sS'went'
p313
I1
sS'Shall'
p314
I1
sS'm'
p315
I2
sS'It'
p316
I3
sS'Sobieski'
p317
I1
sS'definitely'
p318
I2
sS'so'
p319
I3
sS'silence'
p320
I1
sS'time'
p321
I4
sS'everything'
p322
I1
sS'the'
p323
I28
sS'DEPP'
p324
I1
sS'paced'
p325
I1
sS'Omar'
p326
I1
sa(dp327
S'atmosphere'
p328
I1
sS'concept'
p329
I1
sS'Russell'
p330
I1
sS'just'
p331
I1
sS'over'
p332
I1
sS'BH'
p333
I1
sS'all'
p334
I1
sS'years'
p335
I1
sS'Rangers'
p336
I1
sS'majorly'
p337
I1
sS'tough'
p338
I1
sS'supporter'
p339
I1
sS'before'
p340
I1
sS'voter'
p341
I1
sS'20'
p342
I1
sS'Inaccurate'
p343
I1
sS'head'
p344
I1
sg150
I2
sS'point'
p345
I1
sS'scurrilous'
p346
I1
sS'Award'
p347
I1
sS'should'
p348
I2
sS'better'
p349
I1
sS'to'
p350
I8
sS'going'
p351
I1
sS'Traffic'
p352
I1
sS'pride'
p353
I1
sS'bordom'
p354
I1
sS'inferior'
p355
I1
sS'Roman'
p356
I2
sS'real'
p357
I1
sS'good'
p358
I1
sS'OFF'
p359
I1
sS'around'
p360
I1
sS'very'
p361
I2
sS'watch'
p362
I1
sS'falters'
p363
I1
sS'judgement'
p364
I1
sS'every'
p365
I1
sS'not'
p366
I1
sS'one'
p367
I1
sS'Mann'
p368
I1
sS'sucked'
p369
I1
sS'think'
p370
I2
sS'Forget'
p371
I1
sS'disguise'
p372
I1
sS'even'
p373
I1
sS'level'
p374
I1
sS'idiotic'
p375
I1
sS'dumps'
p376
I1
sg71
I1
sS'Scottish'
p377
I1
sS'Go'
p378
I1
sS'old'
p379
I2
sS'people'
p380
I1
sS'imitate'
p381
I1
sS'some'
p382
I1
sS'copy'
p383
I1
sS'scenes'
p384
I1
sS'Only'
p385
I1
sS'are'
p386
I2
sS'undertake'
p387
I1
sS'happen'
p388
I1
sS'beyond'
p389
I1
sS'twaddle'
p390
I1
sS'medieval'
p391
I1
sS'blue'
p392
I1
sS'what'
p393
I1
sS'errors'
p394
I1
sS'plays'
p395
I1
sg99
I5
sS'lots'
p396
I2
sS'movie'
p397
I7
sS'beaten'
p398
I1
sS'plummeting'
p399
I1
sS'Quite'
p400
I1
sS'William'
p401
I1
sg291
I6
sS'acting'
p402
I1
sS'screwed'
p403
I1
sS'got'
p404
I1
sS'epic'
p405
I1
sS'overrated'
p406
I1
sS'scenery'
p407
I1
sS'King'
p408
I1
sS'knew'
p409
I1
sS'inaccurate'
p410
I1
sS'Hopkins'
p411
I1
sS'This'
p412
I1
sS'screen'
p413
I1
sS'men'
p414
I1
sS'little'
p415
I1
sS'here'
p416
I2
sS'embarrassment'
p417
I1
sS'His'
p418
I1
sS'Gibson'
p419
I5
sS'by'
p420
I1
sS'boloney'
p421
I1
sS'training'
p422
I1
sS'brilliant'
p423
I1
sS'of'
p424
I12
sS'chance'
p425
I1
sS'drama'
p426
I1
sS'thing'
p427
I1
sg148
I4
sS'Stupid'
p428
I1
sS'remake'
p429
I1
sS'popcorn'
p430
I1
sS'makes'
p431
I1
sS'or'
p432
I1
sS'first'
p433
I1
sS'seeing'
p434
I1
sS'liked'
p435
I1
sS'love'
p436
I1
sS'Wallace'
p437
I1
sS'No'
p438
I1
sS'Braveheart'
p439
I2
sS'into'
p440
I1
sS'There'
p441
I1
sg32
I13
sS'long'
p442
I1
sS'1st'
p443
I1
sS'Crap'
p444
I1
sS'total'
p445
I1
sS'MANY'
p446
I1
sS'HEART'
p447
I1
sS'story'
p448
I1
sS'from'
p449
I1
sS'takes'
p450
I1
sS'would'
p451
I1
sS'&'
p452
I1
sS'Academy'
p453
I1
sS'been'
p454
I1
sg185
I32
sS'anyone'
p455
I1
sS'paint'
p456
I1
sS'much'
p457
I1
sS'too'
p458
I1
sS'way'
p459
I2
sS'time'
p460
I3
sS'Awful'
p461
I2
sS'hollywood'
p462
I1
sS'waste'
p463
I1
sS'was'
p464
I6
sS'Granted'
p465
I1
sS'more'
p466
I1
sS'horses'
p467
I1
sS'wretched'
p468
I1
sS'himself'
p469
I1
sS'on'
p470
I2
sS'painted'
p471
I1
sS'great'
p472
I1
sS'but'
p473
I2
sS'hated'
p474
I1
sS'ridiculous'
p475
I1
sS'wasted'
p476
I1
sS'trying'
p477
I1
sS'with'
p478
I5
sS'than'
p479
I1
sS'he'
p480
I4
sS'me'
p481
I1
sS'throw'
p482
I1
sS'pleasing'
p483
I1
sS'15'
p484
I3
sS'Crowe'
p485
I1
sS'this'
p486
I7
sS'boring'
p487
I2
sS'up'
p488
I1
sS'while'
p489
I1
sS'Edward'
p490
I1
sS'can'
p491
I2
sS'were'
p492
I1
sS'Tony'
p493
I1
sS'piece'
p494
I1
sS'my'
p495
I1
sS'called'
p496
I1
sS'Gladiator'
p497
I1
sS'history'
p498
I2
sS'and'
p499
I5
sS'bask'
p500
I1
sS'false'
p501
I1
sS'want'
p502
I1
sS'give'
p503
I1
sS'viewer'
p504
I1
sS'minutes'
p505
I4
sS'is'
p506
I8
sS'RIP'
p507
I1
sS'it'
p508
I6
sS'an'
p509
I1
sS'beautiful'
p510
I1
sS'his'
p511
I2
sS'something'
p512
I1
sS'have'
p513
I2
sS'in'
p514
I5
sS'face'
p515
I1
sS'saw'
p516
I1
sS'Historically'
p517
I1
sS'film'
p518
I4
sg264
I2
sS'BRAVE'
p519
I1
sS'no'
p520
I1
sg269
I2
sS'that'
p521
I2
sS'when'
p522
I1
sS'actor'
p523
I1
sS'Glasgow'
p524
I1
sS'how'
p525
I1
sS'interested'
p526
I1
sS'best'
p527
I1
sS'corny'
p528
I1
sS'Fall'
p529
I2
sS'performance'
p530
I1
sS'you'
p531
I2
sS'trash'
p532
I1
sS'events'
p533
I1
sS'visually'
p534
I1
sS'unless'
p535
I1
sS'see'
p536
I1
sS'any'
p537
I1
sS'who'
p538
I1
sS'action'
p539
I2
sS'running'
p540
I1
sS'overdone'
p541
I1
sS'utterly'
p542
I1
sS'The'
p543
I4
sS'Empire'
p544
I2
sg305
I7
sS'task'
p545
I1
sS'don'
p546
I1
sS'for'
p547
I2
sS'350'
p548
I1
sS'It'
p549
I1
sS'An'
p550
I1
sS'thought'
p551
I1
sS'so'
p552
I3
sS'Mel'
p553
I4
sS'at'
p554
I1
sS'the'
p555
I12
sa.